target datalayout = "e-m:e-p270:32:32-p271:32:32-p272:64:64-i64:64-i128:128-f80:128-n8:16:32:64-S128"
target triple = "x86_64-pc-linux-gnu"

@_ZTISt9exception = external constant ptr
@_ZN12_GLOBAL__N_112errorMessageE = internal global [1024 x i8] zeroinitializer, align 16

; Function Attrs: noinline noreturn nounwind uwtable
define linkonce_odr hidden void @__clang_call_terminate(ptr noundef %0) #11 comdat {
  %2 = call ptr @__cxa_begin_catch(ptr %0) #3
  call void @_ZSt9terminatev() #18
  unreachable
}

; Function Attrs: mustprogress nounwind uwtable
define internal void @_ZN12_GLOBAL__N_115setErrorMessageERKSt9exception(ptr noundef nonnull align 8 dereferenceable(8) %0) #4 {
  %2 = alloca ptr, align 8
  store ptr %0, ptr %2, align 8, !tbaa !23
  %3 = load ptr, ptr %2, align 8, !tbaa !23
  %4 = load ptr, ptr %3, align 8, !tbaa !30
  %5 = getelementptr inbounds ptr, ptr %4, i64 2
  %6 = load ptr, ptr %5, align 8
  %7 = call noundef ptr %6(ptr noundef nonnull align 8 dereferenceable(8) %3) #3
  %8 = call ptr @strncpy(ptr noundef @_ZN12_GLOBAL__N_112errorMessageE, ptr noundef %7, i64 noundef 1023) #3
  store i8 0, ptr getelementptr inbounds ([1024 x i8], ptr @_ZN12_GLOBAL__N_112errorMessageE, i64 0, i64 1023), align 1, !tbaa !32
  ret void
}

; Function Attrs: inlinehint mustprogress nounwind uwtable
define internal noundef ptr @_ZN12_GLOBAL__N_16infileEP17ImfTiledInputFile(ptr noundef %0) #6 {
  %2 = alloca ptr, align 8
  store ptr %0, ptr %2, align 8, !tbaa !131
  %3 = load ptr, ptr %2, align 8, !tbaa !131
  ret ptr %3
}

; Function Attrs: mustprogress uwtable
define i32 @ImfTiledInputReadTile(ptr noundef %0, i32 noundef %1, i32 noundef %2, i32 noundef %3, i32 noundef %4) #7 personality ptr @__gxx_personality_v0 {
  %6 = alloca i32, align 4
  %7 = alloca ptr, align 8
  %8 = alloca i32, align 4
  %9 = alloca i32, align 4
  %10 = alloca i32, align 4
  %11 = alloca i32, align 4
  %12 = alloca ptr, align 8
  %13 = alloca i32, align 4
  %14 = alloca ptr, align 8
  store ptr %0, ptr %7, align 8, !tbaa !131
  store i32 %1, ptr %8, align 4, !tbaa !16
  store i32 %2, ptr %9, align 4, !tbaa !16
  store i32 %3, ptr %10, align 4, !tbaa !16
  store i32 %4, ptr %11, align 4, !tbaa !16
  %15 = load ptr, ptr %7, align 8, !tbaa !131
  %16 = invoke noundef ptr @_ZN12_GLOBAL__N_16infileEP17ImfTiledInputFile(ptr noundef %15)
          to label %17 unwind label %23

17:                                               ; preds = %5
  %18 = load i32, ptr %8, align 4, !tbaa !16
  %19 = load i32, ptr %9, align 4, !tbaa !16
  %20 = load i32, ptr %10, align 4, !tbaa !16
  %21 = load i32, ptr %11, align 4, !tbaa !16
  invoke void @_ZN7Imf_3_418TiledRgbaInputFile8readTileEiiii(ptr noundef nonnull align 8 dereferenceable(56) %16, i32 noundef %18, i32 noundef %19, i32 noundef %20, i32 noundef %21)
          to label %22 unwind label %23

22:                                               ; preds = %17
  store i32 1, ptr %6, align 4
  br label %42

23:                                               ; preds = %17, %5
  %24 = landingpad { ptr, i32 }
          catch ptr @_ZTISt9exception
  %25 = extractvalue { ptr, i32 } %24, 0
  store ptr %25, ptr %12, align 8
  %26 = extractvalue { ptr, i32 } %24, 1
  store i32 %26, ptr %13, align 4
  br label %27

27:                                               ; preds = %23
  %28 = load i32, ptr %13, align 4
  %29 = call i32 @llvm.eh.typeid.for.p0(ptr @_ZTISt9exception) #3
  %30 = icmp eq i32 %28, %29
  br i1 %30, label %31, label %44

31:                                               ; preds = %27
  call void @llvm.lifetime.start.p0(i64 8, ptr %14) #3
  %32 = load ptr, ptr %12, align 8
  %33 = call ptr @__cxa_begin_catch(ptr %32) #3
  store ptr %33, ptr %14, align 8
  %34 = load ptr, ptr %14, align 8, !tbaa !23
  invoke void @_ZN12_GLOBAL__N_115setErrorMessageERKSt9exception(ptr noundef nonnull align 8 dereferenceable(8) %34)
          to label %35 unwind label %36

35:                                               ; preds = %31
  store i32 0, ptr %6, align 4
  call void @__cxa_end_catch()
  call void @llvm.lifetime.end.p0(i64 8, ptr %14) #3
  br label %42

36:                                               ; preds = %31
  %37 = landingpad { ptr, i32 }
          cleanup
  %38 = extractvalue { ptr, i32 } %37, 0
  store ptr %38, ptr %12, align 8
  %39 = extractvalue { ptr, i32 } %37, 1
  store i32 %39, ptr %13, align 4
  invoke void @__cxa_end_catch()
          to label %40 unwind label %49

40:                                               ; preds = %36
  call void @llvm.lifetime.end.p0(i64 8, ptr %14) #3
  br label %44

41:                                               ; No predecessors!
  unreachable

42:                                               ; preds = %35, %22
  %43 = load i32, ptr %6, align 4
  ret i32 %43

44:                                               ; preds = %40, %27
  %45 = load ptr, ptr %12, align 8
  %46 = load i32, ptr %13, align 4
  %47 = insertvalue { ptr, i32 } poison, ptr %45, 0
  %48 = insertvalue { ptr, i32 } %47, i32 %46, 1
  resume { ptr, i32 } %48

49:                                               ; preds = %36
  %50 = landingpad { ptr, i32 }
          catch ptr null
  %51 = extractvalue { ptr, i32 } %50, 0
  call void @__clang_call_terminate(ptr %51) #18
  unreachable
}