; Function Attrs: mustprogress uwtable
define range(i32 0, 2) i32 @ImfTiledInputReadTile(ptr noundef nonnull %0, i32 noundef %1, i32 noundef %2, i32 noundef %3, i32 noundef %4) local_unnamed_addr #8 personality ptr @__gxx_personality_v0 {
  invoke void @_ZN7Imf_3_418TiledRgbaInputFile8readTileEiiii(ptr noundef nonnull align 8 dereferenceable(56) %0, i32 noundef %1, i32 noundef %2, i32 noundef %3, i32 noundef %4)
          to label %19 unwind label %6

6:                                                ; preds = %5
  %7 = landingpad { ptr, i32 }
          catch ptr @_ZTISt9exception
  %8 = extractvalue { ptr, i32 } %7, 1
  %9 = tail call i32 @llvm.eh.typeid.for.p0(ptr nonnull @_ZTISt9exception) #24
  %10 = icmp eq i32 %8, %9
  br i1 %10, label %11, label %20

11:                                               ; preds = %6
  %12 = extractvalue { ptr, i32 } %7, 0
  %13 = tail call ptr @__cxa_begin_catch(ptr %12) #24
  %14 = load ptr, ptr %13, align 8, !tbaa !22
  %15 = getelementptr inbounds nuw i8, ptr %14, i64 16
  %16 = load ptr, ptr %15, align 8
  %17 = tail call noundef ptr %16(ptr noundef nonnull align 8 dereferenceable(8) %13) #24
  %18 = tail call ptr @strncpy(ptr noundef nonnull dereferenceable(1) @_ZN12_GLOBAL__N_112errorMessageE, ptr noundef nonnull dereferenceable(1) %17, i64 noundef 1023) #24
  store i8 0, ptr getelementptr inbounds nuw (i8, ptr @_ZN12_GLOBAL__N_112errorMessageE, i64 1023), align 1, !tbaa !15
  tail call void @__cxa_end_catch()
  br label %19

19:                                               ; preds = %5, %11
  %.0 = phi i32 [ 0, %11 ], [ 1, %5 ]
  ret i32 %.0

20:                                               ; preds = %6
  resume { ptr, i32 } %7
}